; Function Attrs: nofree norecurse nosync nounwind memory(readwrite, inaccessiblemem: none) uwtable
define void @Nwk_ManIncrementTravId(ptr noundef captures(none) %0) local_unnamed_addr #0 {
  %2 = getelementptr inbounds nuw i8, ptr %0, i64 104
  %3 = load i32, ptr %2, align 8, !tbaa !3
  %4 = icmp sgt i32 %3, 67108862
  br i1 %4, label %5, label %.critedge

5:                                                ; preds = %1
  %6 = getelementptr inbounds nuw i8, ptr %0, i64 32
  %7 = load ptr, ptr %6, align 8, !tbaa !15
  %8 = getelementptr i8, ptr %7, i64 4
  %.val = load i32, ptr %8, align 4, !tbaa !16
  %9 = icmp sgt i32 %.val, 0
  br i1 %9, label %.lr.ph, label %.critedge

.lr.ph:                                           ; preds = %5
  %10 = getelementptr i8, ptr %7, i64 8
  %.val10 = load ptr, ptr %10, align 8, !tbaa !18
  %wide.trip.count = zext nneg i32 %.val to i64
  br label %11

11:                                               ; preds = %.lr.ph, %17
  %indvars.iv = phi i64 [ 0, %.lr.ph ], [ %indvars.iv.next, %17 ]
  %12 = getelementptr inbounds nuw ptr, ptr %.val10, i64 %indvars.iv
  %13 = load ptr, ptr %12, align 8, !tbaa !19
  %14 = icmp eq ptr %13, null
  br i1 %14, label %17, label %15

15:                                               ; preds = %11
  %16 = getelementptr inbounds nuw i8, ptr %13, i64 40
  store i32 0, ptr %16, align 8, !tbaa !20
  br label %17

17:                                               ; preds = %15, %11
  %indvars.iv.next = add nuw nsw i64 %indvars.iv, 1
  %exitcond.not = icmp eq i64 %indvars.iv.next, %wide.trip.count
  br i1 %exitcond.not, label %.critedge, label %11, !llvm.loop !26

.critedge:                                        ; preds = %17, %5, %1
  %18 = phi i32 [ 0, %5 ], [ %3, %1 ], [ 0, %17 ]
  %19 = add nsw i32 %18, 1
  store i32 %19, ptr %2, align 8, !tbaa !3
  ret void
}